target datalayout = "e-m:e-p270:32:32-p271:32:32-p272:64:64-i64:64-i128:128-f80:128-n8:16:32:64-S128"
target triple = "x86_64-pc-linux-gnu"

%class.GrowableArrayBase = type { i32, i32 }
%class.GrowableArrayMetadata = type { i64 }
%class.ResourceBitMap = type { %class.GrowableBitMap }
%class.GrowableBitMap = type { %class.BitMap }
%class.BitMap = type { ptr, i64 }
%class.IRScope = type { ptr, ptr, i32, ptr, %class.GrowableArray.6, ptr, i32, i8, i8, i8, i8, ptr, %class.ResourceBitMap }
%class.GrowableArray.6 = type { %class.GrowableArrayWithAllocator.7, %class.GrowableArrayMetadata }
%class.GrowableArrayWithAllocator.7 = type { %class.GrowableArrayView.8 }
%class.GrowableArrayView.8 = type { %class.GrowableArrayBase, ptr }
%"class.GraphBuilder::ScopeData" = type <{ ptr, ptr, ptr, i8, [7 x i8], ptr, ptr, i64, i32, [4 x i8], ptr, i8, [3 x i8], i32, i32, [4 x i8], ptr, ptr, i32, [4 x i8], ptr, ptr, ptr, i8, [7 x i8] }>
%class.GraphBuilder = type <{ ptr, ptr, ptr, ptr, ptr, i32, [4 x i8], ptr, ptr, ptr, ptr, ptr, ptr, i8, [7 x i8] }>

; Function Attrs: mustprogress nounwind uwtable
define linkonce_odr hidden noundef ptr @_ZNK12GraphBuilder9ScopeData5scopeEv(ptr noundef nonnull align 8 dereferenceable(137) %0) #1 comdat align 2 {
  %2 = alloca ptr, align 8
  store ptr %0, ptr %2, align 8
  %3 = load ptr, ptr %2, align 8
  %4 = getelementptr inbounds %"class.GraphBuilder::ScopeData", ptr %3, i32 0, i32 2
  %5 = load ptr, ptr %4, align 8
  ret ptr %5
}

; Function Attrs: mustprogress nounwind uwtable
define linkonce_odr hidden noundef ptr @_ZNK12GraphBuilder10scope_dataEv(ptr noundef nonnull align 8 dereferenceable(97) %0) #1 comdat align 2 {
  %2 = alloca ptr, align 8
  store ptr %0, ptr %2, align 8
  %3 = load ptr, ptr %2, align 8
  %4 = getelementptr inbounds %class.GraphBuilder, ptr %3, i32 0, i32 0
  %5 = load ptr, ptr %4, align 8
  ret ptr %5
}

; Function Attrs: mustprogress nounwind uwtable
define linkonce_odr hidden noundef ptr @_ZNK7IRScope6callerEv(ptr noundef nonnull align 8 dereferenceable(96) %0) #1 comdat align 2 {
  %2 = alloca ptr, align 8
  store ptr %0, ptr %2, align 8
  %3 = load ptr, ptr %2, align 8
  %4 = getelementptr inbounds %class.IRScope, ptr %3, i32 0, i32 1
  %5 = load ptr, ptr %4, align 8
  ret ptr %5
}

; Function Attrs: mustprogress nounwind uwtable
define linkonce_odr hidden noundef ptr @_ZNK7IRScope6methodEv(ptr noundef nonnull align 8 dereferenceable(96) %0) #1 comdat align 2 {
  %2 = alloca ptr, align 8
  store ptr %0, ptr %2, align 8
  %3 = load ptr, ptr %2, align 8
  %4 = getelementptr inbounds %class.IRScope, ptr %3, i32 0, i32 3
  %5 = load ptr, ptr %4, align 8
  ret ptr %5
}

; Function Attrs: mustprogress nounwind uwtable
define linkonce_odr hidden noundef ptr @_ZNK12GraphBuilder5scopeEv(ptr noundef nonnull align 8 dereferenceable(97) %0) #1 comdat align 2 {
  %2 = alloca ptr, align 8
  store ptr %0, ptr %2, align 8
  %3 = load ptr, ptr %2, align 8
  %4 = call noundef ptr @_ZNK12GraphBuilder10scope_dataEv(ptr noundef nonnull align 8 dereferenceable(97) %3)
  %5 = call noundef ptr @_ZNK12GraphBuilder9ScopeData5scopeEv(ptr noundef nonnull align 8 dereferenceable(137) %4)
  ret ptr %5
}

; Function Attrs: mustprogress nounwind uwtable
define hidden noundef i32 @_ZNK12GraphBuilder22recursive_inline_levelEP8ciMethod(ptr noundef nonnull align 8 dereferenceable(97) %0, ptr noundef %1) #1 align 2 {
  %3 = alloca ptr, align 8
  %4 = alloca ptr, align 8
  %5 = alloca i32, align 4
  %6 = alloca ptr, align 8
  store ptr %0, ptr %3, align 8
  store ptr %1, ptr %4, align 8
  %7 = load ptr, ptr %3, align 8
  store i32 0, ptr %5, align 4
  %8 = call noundef ptr @_ZNK12GraphBuilder5scopeEv(ptr noundef nonnull align 8 dereferenceable(97) %7)
  store ptr %8, ptr %6, align 8
  br label %9

9:                                                ; preds = %21, %2
  %10 = load ptr, ptr %6, align 8
  %11 = icmp ne ptr %10, null
  br i1 %11, label %12, label %24

12:                                               ; preds = %9
  %13 = load ptr, ptr %6, align 8
  %14 = call noundef ptr @_ZNK7IRScope6methodEv(ptr noundef nonnull align 8 dereferenceable(96) %13)
  %15 = load ptr, ptr %4, align 8
  %16 = icmp eq ptr %14, %15
  br i1 %16, label %17, label %20

17:                                               ; preds = %12
  %18 = load i32, ptr %5, align 4
  %19 = add nsw i32 %18, 1
  store i32 %19, ptr %5, align 4
  br label %20

20:                                               ; preds = %17, %12
  br label %21

21:                                               ; preds = %20
  %22 = load ptr, ptr %6, align 8
  %23 = call noundef ptr @_ZNK7IRScope6callerEv(ptr noundef nonnull align 8 dereferenceable(96) %22)
  store ptr %23, ptr %6, align 8
  br label %9, !llvm.loop !37

24:                                               ; preds = %9
  %25 = load i32, ptr %5, align 4
  ret i32 %25
}