; Function Attrs: mustprogress nofree norecurse nosync nounwind willreturn memory(read, inaccessiblemem: none) uwtable
define hidden noundef i32 @_ZNK12GraphBuilder22recursive_inline_levelEP8ciMethod(ptr nocapture noundef nonnull readonly align 8 dereferenceable(97) %0, ptr noundef readnone %1) local_unnamed_addr #5 align 2 {
  %3 = load ptr, ptr %0, align 8
  %4 = getelementptr inbounds i8, ptr %3, i64 16
  %.07 = load ptr, ptr %4, align 8
  %.not8 = icmp eq ptr %.07, null
  br i1 %.not8, label %._crit_edge, label %.lr.ph

.lr.ph:                                           ; preds = %2, %.lr.ph
  %.010 = phi ptr [ %.0, %.lr.ph ], [ %.07, %2 ]
  %.069 = phi i32 [ %spec.select, %.lr.ph ], [ 0, %2 ]
  %5 = getelementptr inbounds i8, ptr %.010, i64 24
  %6 = load ptr, ptr %5, align 8
  %7 = icmp eq ptr %6, %1
  %8 = zext i1 %7 to i32
  %spec.select = add nuw nsw i32 %.069, %8
  %9 = getelementptr inbounds i8, ptr %.010, i64 8
  %.0 = load ptr, ptr %9, align 8
  %.not = icmp eq ptr %.0, null
  br i1 %.not, label %._crit_edge, label %.lr.ph, !llvm.loop !48

._crit_edge:                                      ; preds = %.lr.ph, %2
  %.06.lcssa = phi i32 [ 0, %2 ], [ %spec.select, %.lr.ph ]
  ret i32 %.06.lcssa
}